; Function Attrs: null_pointer_is_valid sspstrong uwtable
define internal void @dissect_r3_cmd_powertableselection(ptr noundef %0, i32 noundef %1, i32 %2, ptr readnone captures(none) %3, ptr noundef %4) #0 {
  %.not = icmp eq ptr %4, null
  br i1 %.not, label %19, label %6

6:                                                ; preds = %5
  %7 = tail call zeroext i8 @tvb_get_uint8(ptr noundef %0, i32 noundef %1)
  %8 = add i32 %1, 2
  %9 = zext i8 %7 to i32
  %10 = add nsw i32 %9, -2
  %11 = tail call ptr @tvb_new_subset_length(ptr noundef %0, i32 noundef %8, i32 noundef %10)
  %12 = load i32, ptr @hf_r3_commandlength, align 4
  %13 = tail call ptr @proto_tree_add_item(ptr noundef nonnull %4, i32 noundef %12, ptr noundef %0, i32 noundef %1, i32 noundef 1, i32 noundef -2147483648)
  %14 = load i32, ptr @hf_r3_command, align 4
  %15 = add i32 %1, 1
  %16 = tail call ptr @proto_tree_add_item(ptr noundef nonnull %4, i32 noundef %14, ptr noundef %0, i32 noundef %15, i32 noundef 1, i32 noundef -2147483648)
  %17 = load i32, ptr @hf_r3_powertableselection, align 4
  %18 = tail call ptr @proto_tree_add_item(ptr noundef nonnull %4, i32 noundef %17, ptr noundef %11, i32 noundef 0, i32 noundef 1, i32 noundef -2147483648)
  br label %19

19:                                               ; preds = %5, %6
  ret void
}